; Function Attrs: nounwind uwtable
define internal void @cr_exp100_done(ptr noundef %0, ptr noundef readonly captures(none) %1, i32 noundef %2) #0 {
  %4 = getelementptr inbounds nuw i8, ptr %1, i64 16
  %5 = load ptr, ptr %4, align 8, !tbaa !205
  %.not = icmp eq i32 %2, 0
  %6 = select i1 %.not, i32 0, i32 3
  %7 = getelementptr inbounds nuw i8, ptr %5, i64 48
  store i32 %6, ptr %7, align 8, !tbaa !208
  %8 = getelementptr inbounds nuw i8, ptr %0, i64 316
  %9 = load i32, ptr %8, align 4, !tbaa !216
  %10 = and i32 %9, -65
  store i32 %10, ptr %8, align 4, !tbaa !216
  tail call void @Curl_expire_done(ptr noundef %0, i32 noundef 0) #11
  ret void
}